; ModuleID = '58/1134.c'
source_filename = "58/1134.c"
target datalayout = "e-m:e-p270:32:32-p271:32:32-p272:64:64-i64:64-f80:128-n8:16:32:64-S128"
target triple = "x86_64-pc-linux-gnu"

@.str = private unnamed_addr constant [4 x i8] c"%d\0A\00", align 1
@.str.1 = private unnamed_addr constant [3 x i8] c"1\0A\00", align 1
@.str.2 = private unnamed_addr constant [3 x i8] c"0\0A\00", align 1

; Function Attrs: noinline nounwind uwtable
define dso_local i32 @isA(i8 signext %0) #0 {
  %2 = alloca i32, align 4
  %3 = alloca i8, align 1
  store i8 %0, i8* %3, align 1
  %4 = load i8, i8* %3, align 1
  %5 = sext i8 %4 to i32
  %6 = icmp sge i32 %5, 48
  br i1 %6, label %7, label %11

7:                                                ; preds = %1
  %8 = load i8, i8* %3, align 1
  %9 = sext i8 %8 to i32
  %10 = icmp sle i32 %9, 57
  br i1 %10, label %31, label %11

11:                                               ; preds = %7, %1
  %12 = load i8, i8* %3, align 1
  %13 = sext i8 %12 to i32
  %14 = icmp sge i32 %13, 97
  br i1 %14, label %15, label %19

15:                                               ; preds = %11
  %16 = load i8, i8* %3, align 1
  %17 = sext i8 %16 to i32
  %18 = icmp sle i32 %17, 122
  br i1 %18, label %31, label %19

19:                                               ; preds = %15, %11
  %20 = load i8, i8* %3, align 1
  %21 = sext i8 %20 to i32
  %22 = icmp sge i32 %21, 65
  br i1 %22, label %23, label %27

23:                                               ; preds = %19
  %24 = load i8, i8* %3, align 1
  %25 = sext i8 %24 to i32
  %26 = icmp sle i32 %25, 90
  br i1 %26, label %31, label %27

27:                                               ; preds = %23, %19
  %28 = load i8, i8* %3, align 1
  %29 = sext i8 %28 to i32
  %30 = icmp eq i32 %29, 95
  br i1 %30, label %31, label %32

31:                                               ; preds = %27, %23, %15, %7
  store i32 1, i32* %2, align 4
  br label %33

32:                                               ; preds = %27
  store i32 0, i32* %2, align 4
  br label %33

33:                                               ; preds = %32, %31
  %34 = load i32, i32* %2, align 4
  ret i32 %34
}

; Function Attrs: noinline nounwind uwtable
define dso_local i32 @isStart(i8 signext %0) #0 {
  %2 = alloca i32, align 4
  %3 = alloca i8, align 1
  store i8 %0, i8* %3, align 1
  %4 = load i8, i8* %3, align 1
  %5 = sext i8 %4 to i32
  %6 = icmp sge i32 %5, 97
  br i1 %6, label %7, label %11

7:                                                ; preds = %1
  %8 = load i8, i8* %3, align 1
  %9 = sext i8 %8 to i32
  %10 = icmp sle i32 %9, 122
  br i1 %10, label %23, label %11

11:                                               ; preds = %7, %1
  %12 = load i8, i8* %3, align 1
  %13 = sext i8 %12 to i32
  %14 = icmp sge i32 %13, 65
  br i1 %14, label %15, label %19

15:                                               ; preds = %11
  %16 = load i8, i8* %3, align 1
  %17 = sext i8 %16 to i32
  %18 = icmp sle i32 %17, 90
  br i1 %18, label %23, label %19

19:                                               ; preds = %15, %11
  %20 = load i8, i8* %3, align 1
  %21 = sext i8 %20 to i32
  %22 = icmp eq i32 %21, 95
  br i1 %22, label %23, label %24

23:                                               ; preds = %19, %15, %7
  store i32 1, i32* %2, align 4
  br label %25

24:                                               ; preds = %19
  store i32 0, i32* %2, align 4
  br label %25

25:                                               ; preds = %24, %23
  %26 = load i32, i32* %2, align 4
  ret i32 %26
}

; Function Attrs: noinline nounwind uwtable
define dso_local i32 @main() #0 {
  %1 = alloca i32, align 4
  %2 = alloca i32, align 4
  %3 = alloca i32, align 4
  %4 = alloca [300 x [81 x i8]], align 16
  %5 = alloca i32, align 4
  %6 = alloca i32, align 4
  %7 = alloca i32, align 4
  store i32 0, i32* %1, align 4
  store i32 0, i32* %2, align 4
  store i32 0, i32* %3, align 4
  %8 = call i32 (i8*, ...) @__isoc99_scanf(i8* getelementptr inbounds ([4 x i8], [4 x i8]* @.str, i64 0, i64 0), i32* %3)
  store i32 0, i32* %2, align 4
  br label %9

9:                                                ; preds = %19, %0
  %10 = load i32, i32* %2, align 4
  %11 = load i32, i32* %3, align 4
  %12 = icmp slt i32 %10, %11
  br i1 %12, label %13, label %22

13:                                               ; preds = %9
  %14 = load i32, i32* %2, align 4
  %15 = sext i32 %14 to i64
  %16 = getelementptr inbounds [300 x [81 x i8]], [300 x [81 x i8]]* %4, i64 0, i64 %15
  %17 = getelementptr inbounds [81 x i8], [81 x i8]* %16, i64 0, i64 0
  %18 = call i32 (i8*, ...) bitcast (i32 (...)* @gets to i32 (i8*, ...)*)(i8* %17)
  br label %19

19:                                               ; preds = %13
  %20 = load i32, i32* %2, align 4
  %21 = add nsw i32 %20, 1
  store i32 %21, i32* %2, align 4
  br label %9

22:                                               ; preds = %9
  store i32 0, i32* %2, align 4
  br label %23

23:                                               ; preds = %71, %22
  %24 = load i32, i32* %2, align 4
  %25 = load i32, i32* %3, align 4
  %26 = icmp slt i32 %24, %25
  br i1 %26, label %27, label %74

27:                                               ; preds = %23
  %28 = load i32, i32* %2, align 4
  %29 = sext i32 %28 to i64
  %30 = getelementptr inbounds [300 x [81 x i8]], [300 x [81 x i8]]* %4, i64 0, i64 %29
  %31 = getelementptr inbounds [81 x i8], [81 x i8]* %30, i64 0, i64 0
  %32 = call i64 @strlen(i8* %31) #3
  %33 = trunc i64 %32 to i32
  store i32 %33, i32* %5, align 4
  store i32 0, i32* %6, align 4
  store i32 1, i32* %7, align 4
  %34 = load i32, i32* %2, align 4
  %35 = sext i32 %34 to i64
  %36 = getelementptr inbounds [300 x [81 x i8]], [300 x [81 x i8]]* %4, i64 0, i64 %35
  %37 = getelementptr inbounds [81 x i8], [81 x i8]* %36, i64 0, i64 0
  %38 = load i8, i8* %37, align 1
  %39 = call i32 @isStart(i8 signext %38)
  %40 = icmp eq i32 %39, 1
  br i1 %40, label %41, label %62

41:                                               ; preds = %27
  br label %42

42:                                               ; preds = %58, %41
  %43 = load i32, i32* %6, align 4
  %44 = load i32, i32* %5, align 4
  %45 = icmp slt i32 %43, %44
  br i1 %45, label %46, label %61

46:                                               ; preds = %42
  %47 = load i32, i32* %2, align 4
  %48 = sext i32 %47 to i64
  %49 = getelementptr inbounds [300 x [81 x i8]], [300 x [81 x i8]]* %4, i64 0, i64 %48
  %50 = load i32, i32* %6, align 4
  %51 = sext i32 %50 to i64
  %52 = getelementptr inbounds [81 x i8], [81 x i8]* %49, i64 0, i64 %51
  %53 = load i8, i8* %52, align 1
  %54 = call i32 @isA(i8 signext %53)
  %55 = icmp eq i32 %54, 0
  br i1 %55, label %56, label %57

56:                                               ; preds = %46
  store i32 0, i32* %7, align 4
  br label %57

57:                                               ; preds = %56, %46
  br label %58

58:                                               ; preds = %57
  %59 = load i32, i32* %6, align 4
  %60 = add nsw i32 %59, 1
  store i32 %60, i32* %6, align 4
  br label %42

61:                                               ; preds = %42
  br label %63

62:                                               ; preds = %27
  store i32 0, i32* %7, align 4
  br label %63

63:                                               ; preds = %62, %61
  %64 = load i32, i32* %7, align 4
  %65 = icmp eq i32 %64, 1
  br i1 %65, label %66, label %68

66:                                               ; preds = %63
  %67 = call i32 (i8*, ...) @printf(i8* getelementptr inbounds ([3 x i8], [3 x i8]* @.str.1, i64 0, i64 0))
  br label %70

68:                                               ; preds = %63
  %69 = call i32 (i8*, ...) @printf(i8* getelementptr inbounds ([3 x i8], [3 x i8]* @.str.2, i64 0, i64 0))
  br label %70

70:                                               ; preds = %68, %66
  br label %71

71:                                               ; preds = %70
  %72 = load i32, i32* %2, align 4
  %73 = add nsw i32 %72, 1
  store i32 %73, i32* %2, align 4
  br label %23

74:                                               ; preds = %23
  ret i32 0
}

declare dso_local i32 @__isoc99_scanf(i8*, ...) #1

declare dso_local i32 @gets(...) #1

; Function Attrs: nounwind readonly
declare dso_local i64 @strlen(i8*) #2

declare dso_local i32 @printf(i8*, ...) #1


!llvm.module.flags = !{!0}
!llvm.ident = !{!1}

!0 = !{i32 1, !"wchar_size", i32 4}
!1 = !{!"clang version 10.0.0-4ubuntu1 "}
