; ModuleID = 'source-C-CXX/57/1134.c'
source_filename = "source-C-CXX/57/1134.c"
target datalayout = "e-m:e-p270:32:32-p271:32:32-p272:64:64-i64:64-f80:128-n8:16:32:64-S128"
target triple = "x86_64-pc-linux-gnu"

@.str = private unnamed_addr constant [4 x i8] c"%d\0A\00", align 1
@str = private unnamed_addr constant [2 x i8] c"0\00", align 1
@str.3 = private unnamed_addr constant [2 x i8] c"1\00", align 1

; Function Attrs: mustprogress nofree norecurse nosync nounwind readnone sspstrong uwtable willreturn
define dso_local i32 @isA(i8 signext %0) local_unnamed_addr #0 {
  %2 = add i8 %0, -48
  %3 = icmp ult i8 %2, 10
  %4 = add i8 %0, -97
  %5 = icmp ult i8 %4, 26
  %6 = or i1 %3, %5
  br i1 %6, label %13, label %7

7:                                                ; preds = %1
  %8 = add i8 %0, -65
  %9 = icmp ult i8 %8, 26
  %10 = icmp eq i8 %0, 95
  %11 = or i1 %10, %9
  %12 = zext i1 %11 to i32
  br label %13

13:                                               ; preds = %7, %1
  %14 = phi i32 [ 1, %1 ], [ %12, %7 ]
  ret i32 %14
}

; Function Attrs: mustprogress nofree norecurse nosync nounwind readnone sspstrong uwtable willreturn
define dso_local i32 @isStart(i8 signext %0) local_unnamed_addr #0 {
  %2 = add i8 %0, -97
  %3 = icmp ult i8 %2, 26
  br i1 %3, label %10, label %4

4:                                                ; preds = %1
  %5 = add i8 %0, -65
  %6 = icmp ult i8 %5, 26
  %7 = icmp eq i8 %0, 95
  %8 = or i1 %7, %6
  %9 = zext i1 %8 to i32
  br label %10

10:                                               ; preds = %4, %1
  %11 = phi i32 [ 1, %1 ], [ %9, %4 ]
  ret i32 %11
}

; Function Attrs: nounwind sspstrong uwtable
define dso_local i32 @main() local_unnamed_addr #1 {
  %1 = alloca i32, align 4
  %2 = alloca [300 x [81 x i8]], align 16
  %3 = bitcast i32* %1 to i8*
  call void @llvm.lifetime.start.p0i8(i64 4, i8* nonnull %3) #7
  store i32 0, i32* %1, align 4, !tbaa !5
  %4 = call i32 (i8*, ...) @__isoc99_scanf(i8* getelementptr inbounds ([4 x i8], [4 x i8]* @.str, i64 0, i64 0), i32* nonnull %1)
  %5 = getelementptr inbounds [300 x [81 x i8]], [300 x [81 x i8]]* %2, i64 0, i64 0, i64 0
  call void @llvm.lifetime.start.p0i8(i64 24300, i8* nonnull %5) #7
  %6 = load i32, i32* %1, align 4, !tbaa !5
  %7 = icmp sgt i32 %6, 0
  br i1 %7, label %10, label %68

8:                                                ; preds = %10
  %9 = icmp sgt i32 %15, 0
  br i1 %9, label %18, label %68

10:                                               ; preds = %0, %10
  %11 = phi i64 [ %14, %10 ], [ 0, %0 ]
  %12 = getelementptr inbounds [300 x [81 x i8]], [300 x [81 x i8]]* %2, i64 0, i64 %11, i64 0
  %13 = call i32 (i8*, ...) bitcast (i32 (...)* @gets to i32 (i8*, ...)*)(i8* nonnull %12) #7
  %14 = add nuw nsw i64 %11, 1
  %15 = load i32, i32* %1, align 4, !tbaa !5
  %16 = sext i32 %15 to i64
  %17 = icmp slt i64 %14, %16
  br i1 %17, label %10, label %8, !llvm.loop !9

18:                                               ; preds = %8, %61
  %19 = phi i64 [ %64, %61 ], [ 0, %8 ]
  %20 = getelementptr inbounds [300 x [81 x i8]], [300 x [81 x i8]]* %2, i64 0, i64 %19, i64 0
  %21 = call i64 @strlen(i8* noundef nonnull %20) #8
  %22 = trunc i64 %21 to i32
  %23 = load i8, i8* %20, align 1, !tbaa !11
  %24 = add i8 %23, -97
  %25 = icmp ult i8 %24, 26
  br i1 %25, label %31, label %26

26:                                               ; preds = %18
  %27 = add i8 %23, -65
  %28 = icmp ult i8 %27, 26
  %29 = icmp eq i8 %23, 95
  %30 = or i1 %29, %28
  br i1 %30, label %31, label %60

31:                                               ; preds = %18, %26
  %32 = icmp sgt i32 %22, 0
  br i1 %32, label %33, label %61

33:                                               ; preds = %31
  %34 = shl i64 %21, 32
  %35 = ashr exact i64 %34, 32
  br label %36

36:                                               ; preds = %55, %33
  %37 = phi i8 [ %23, %33 ], [ %57, %55 ]
  %38 = phi i64 [ 0, %33 ], [ %53, %55 ]
  %39 = phi i32 [ 1, %33 ], [ %52, %55 ]
  %40 = add i8 %37, -48
  %41 = icmp ult i8 %40, 10
  %42 = add i8 %37, -97
  %43 = icmp ult i8 %42, 26
  %44 = or i1 %41, %43
  br i1 %44, label %51, label %45

45:                                               ; preds = %36
  %46 = add i8 %37, -65
  %47 = icmp ugt i8 %46, 25
  %48 = icmp ne i8 %37, 95
  %49 = and i1 %48, %47
  %50 = select i1 %49, i32 0, i32 %39
  br label %51

51:                                               ; preds = %45, %36
  %52 = phi i32 [ %39, %36 ], [ %50, %45 ]
  %53 = add nuw nsw i64 %38, 1
  %54 = icmp eq i64 %53, %35
  br i1 %54, label %58, label %55, !llvm.loop !12

55:                                               ; preds = %51
  %56 = getelementptr inbounds [300 x [81 x i8]], [300 x [81 x i8]]* %2, i64 0, i64 %19, i64 %53
  %57 = load i8, i8* %56, align 1, !tbaa !11
  br label %36

58:                                               ; preds = %51
  %59 = icmp eq i32 %52, 1
  br i1 %59, label %61, label %60

60:                                               ; preds = %26, %58
  br label %61

61:                                               ; preds = %58, %31, %60
  %62 = phi i8* [ getelementptr inbounds ([2 x i8], [2 x i8]* @str, i64 0, i64 0), %60 ], [ getelementptr inbounds ([2 x i8], [2 x i8]* @str.3, i64 0, i64 0), %31 ], [ getelementptr inbounds ([2 x i8], [2 x i8]* @str.3, i64 0, i64 0), %58 ]
  %63 = call i32 @puts(i8* nonnull dereferenceable(1) %62)
  %64 = add nuw nsw i64 %19, 1
  %65 = load i32, i32* %1, align 4, !tbaa !5
  %66 = sext i32 %65 to i64
  %67 = icmp slt i64 %64, %66
  br i1 %67, label %18, label %68, !llvm.loop !13

68:                                               ; preds = %61, %0, %8
  call void @llvm.lifetime.end.p0i8(i64 24300, i8* nonnull %5) #7
  call void @llvm.lifetime.end.p0i8(i64 4, i8* nonnull %3) #7
  ret i32 0
}

; Function Attrs: argmemonly mustprogress nofree nosync nounwind willreturn
declare void @llvm.lifetime.start.p0i8(i64 immarg, i8* nocapture) #2

; Function Attrs: nofree nounwind
declare noundef i32 @__isoc99_scanf(i8* nocapture noundef readonly, ...) local_unnamed_addr #3

declare i32 @gets(...) local_unnamed_addr #4

; Function Attrs: argmemonly mustprogress nofree nounwind readonly willreturn
declare i64 @strlen(i8* nocapture) local_unnamed_addr #5

; Function Attrs: argmemonly mustprogress nofree nosync nounwind willreturn
declare void @llvm.lifetime.end.p0i8(i64 immarg, i8* nocapture) #2

; Function Attrs: nofree nounwind
declare noundef i32 @puts(i8* nocapture noundef readonly) local_unnamed_addr #6


!llvm.module.flags = !{!0, !1, !2, !3}
!llvm.ident = !{!4}

!0 = !{i32 1, !"wchar_size", i32 4}
!1 = !{i32 7, !"PIC Level", i32 2}
!2 = !{i32 7, !"PIE Level", i32 2}
!3 = !{i32 7, !"uwtable", i32 1}
!4 = !{!"clang version 13.0.0"}
!5 = !{!6, !6, i64 0}
!6 = !{!"int", !7, i64 0}
!7 = !{!"omnipotent char", !8, i64 0}
!8 = !{!"Simple C/C++ TBAA"}
!9 = distinct !{!9, !10}
!10 = !{!"llvm.loop.mustprogress"}
!11 = !{!7, !7, i64 0}
!12 = distinct !{!12, !10}
!13 = distinct !{!13, !10}
